target datalayout = "e-m:e-p270:32:32-p271:32:32-p272:64:64-i64:64-i128:128-f80:128-n8:16:32:64-S128"
target triple = "x86_64-pc-linux-gnu"

%struct.grpc_slice = type { ptr, %"union.grpc_slice::grpc_slice_data" }
%"union.grpc_slice::grpc_slice_data" = type { %"struct.grpc_slice::grpc_slice_data::grpc_slice_refcounted", [8 x i8] }
%"struct.grpc_slice::grpc_slice_data::grpc_slice_refcounted" = type { i64, ptr }
%"class.grpc_core::StaticSlice" = type { %"class.grpc_core::slice_detail::BaseSlice" }
%"class.grpc_core::slice_detail::BaseSlice" = type { %struct.grpc_slice }

; Function Attrs: mustprogress nounwind uwtable
define linkonce_odr void @_ZN9grpc_core12slice_detail9BaseSliceC2ERK10grpc_slice(ptr noundef nonnull align 8 dereferenceable(32) %0, ptr noundef nonnull align 8 dereferenceable(32) %1) unnamed_addr #7 comdat align 2 {
  %3 = alloca ptr, align 8
  %4 = alloca ptr, align 8
  store ptr %0, ptr %3, align 8, !tbaa !15
  store ptr %1, ptr %4, align 8, !tbaa !48
  %5 = load ptr, ptr %3, align 8
  %6 = getelementptr inbounds nuw %"class.grpc_core::slice_detail::BaseSlice", ptr %5, i32 0, i32 0
  %7 = load ptr, ptr %4, align 8, !tbaa !48
  call void @llvm.memcpy.p0.p0.i64(ptr align 8 %6, ptr align 8 %7, i64 32, i1 false), !tbaa.struct !17
  ret void
}

; Function Attrs: mustprogress uwtable
define linkonce_odr void @_ZN9grpc_core11StaticSliceC2ERK10grpc_slice(ptr noundef nonnull align 8 dereferenceable(32) %0, ptr noundef nonnull align 8 dereferenceable(32) %1) unnamed_addr #4 comdat align 2 {
  %3 = alloca ptr, align 8
  %4 = alloca ptr, align 8
  store ptr %0, ptr %3, align 8, !tbaa !96
  store ptr %1, ptr %4, align 8, !tbaa !48
  %5 = load ptr, ptr %3, align 8
  %6 = load ptr, ptr %4, align 8, !tbaa !48
  call void @_ZN9grpc_core12slice_detail9BaseSliceC2ERK10grpc_slice(ptr noundef nonnull align 8 dereferenceable(32) %5, ptr noundef nonnull align 8 dereferenceable(32) %6)
  ret void
}

; Function Attrs: mustprogress nounwind uwtable
define linkonce_odr noundef ptr @_ZN19grpc_slice_refcount12NoopRefcountEv() #7 comdat align 2 {
  ret ptr inttoptr (i64 1 to ptr)
}

; Function Attrs: mustprogress nounwind uwtable
define internal void @_ZN9grpc_core12slice_detailL10EmptySliceEv(ptr dead_on_unwind noalias writable sret(%struct.grpc_slice) align 8 %0) #7 {
  call void @llvm.memset.p0.i64(ptr align 8 %0, i8 0, i64 32, i1 false)
  ret void
}

; Function Attrs: mustprogress uwtable
define linkonce_odr void @_ZN9grpc_core12slice_detail18StaticConstructorsINS_11StaticSliceEE16FromStaticBufferEPKvm(ptr dead_on_unwind noalias writable sret(%"class.grpc_core::StaticSlice") align 8 %0, ptr noundef %1, i64 noundef %2) #4 comdat align 2 {
  %4 = alloca ptr, align 8
  %5 = alloca ptr, align 8
  %6 = alloca i64, align 8
  %7 = alloca %struct.grpc_slice, align 8
  store ptr %0, ptr %4, align 8
  store ptr %1, ptr %5, align 8, !tbaa !14
  store i64 %2, ptr %6, align 8, !tbaa !12
  call void @llvm.lifetime.start.p0(i64 32, ptr %7) #3
  %8 = call noundef ptr @_ZN19grpc_slice_refcount12NoopRefcountEv()
  %9 = getelementptr inbounds nuw %struct.grpc_slice, ptr %7, i32 0, i32 0
  store ptr %8, ptr %9, align 8, !tbaa !3
  %10 = load ptr, ptr %5, align 8, !tbaa !14
  %11 = getelementptr inbounds nuw %struct.grpc_slice, ptr %7, i32 0, i32 1
  %12 = getelementptr inbounds nuw %"struct.grpc_slice::grpc_slice_data::grpc_slice_refcounted", ptr %11, i32 0, i32 1
  store ptr %10, ptr %12, align 8, !tbaa !9
  %13 = load i64, ptr %6, align 8, !tbaa !12
  %14 = getelementptr inbounds nuw %struct.grpc_slice, ptr %7, i32 0, i32 1
  %15 = getelementptr inbounds nuw %"struct.grpc_slice::grpc_slice_data::grpc_slice_refcounted", ptr %14, i32 0, i32 0
  store i64 %13, ptr %15, align 8, !tbaa !9
  call void @_ZN9grpc_core11StaticSliceC2ERK10grpc_slice(ptr noundef nonnull align 8 dereferenceable(32) %0, ptr noundef nonnull align 8 dereferenceable(32) %7)
  call void @llvm.lifetime.end.p0(i64 32, ptr %7) #3
  ret void
}

; Function Attrs: mustprogress nounwind uwtable
define linkonce_odr void @_ZN9grpc_core12slice_detail9BaseSlice10TakeCSliceEv(ptr dead_on_unwind noalias writable sret(%struct.grpc_slice) align 8 %0, ptr noundef nonnull align 8 dereferenceable(32) %1) #7 comdat align 2 {
  %3 = alloca ptr, align 8
  %4 = alloca %struct.grpc_slice, align 8
  store ptr %1, ptr %3, align 8, !tbaa !15
  %5 = load ptr, ptr %3, align 8
  %6 = getelementptr inbounds nuw %"class.grpc_core::slice_detail::BaseSlice", ptr %5, i32 0, i32 0
  call void @llvm.memcpy.p0.p0.i64(ptr align 8 %0, ptr align 8 %6, i64 32, i1 false), !tbaa.struct !17
  call void @llvm.lifetime.start.p0(i64 32, ptr %4) #3
  call void @_ZN9grpc_core12slice_detailL10EmptySliceEv(ptr dead_on_unwind writable sret(%struct.grpc_slice) align 8 %4)
  %7 = getelementptr inbounds nuw %"class.grpc_core::slice_detail::BaseSlice", ptr %5, i32 0, i32 0
  call void @llvm.memcpy.p0.p0.i64(ptr align 8 %7, ptr align 8 %4, i64 32, i1 false), !tbaa.struct !17
  call void @llvm.lifetime.end.p0(i64 32, ptr %4) #3
  ret void
}

; Function Attrs: mustprogress uwtable
define linkonce_odr void @_ZN9grpc_core12slice_detail18StaticConstructorsINS_11StaticSliceEE16FromStaticStringEPKc(ptr dead_on_unwind noalias writable sret(%"class.grpc_core::StaticSlice") align 8 %0, ptr noundef %1) #4 comdat align 2 {
  %3 = alloca ptr, align 8
  %4 = alloca ptr, align 8
  store ptr %0, ptr %3, align 8
  store ptr %1, ptr %4, align 8, !tbaa !10
  %5 = load ptr, ptr %4, align 8, !tbaa !10
  %6 = load ptr, ptr %4, align 8, !tbaa !10
  %7 = call i64 @strlen(ptr noundef %6) #19
  call void @_ZN9grpc_core12slice_detail18StaticConstructorsINS_11StaticSliceEE16FromStaticBufferEPKvm(ptr dead_on_unwind writable sret(%"class.grpc_core::StaticSlice") align 8 %0, ptr noundef %5, i64 noundef %7)
  ret void
}

; Function Attrs: mustprogress uwtable
define void @grpc_slice_from_static_string(ptr dead_on_unwind noalias writable sret(%struct.grpc_slice) align 8 %0, ptr noundef %1) #4 {
  %3 = alloca ptr, align 8
  %4 = alloca %"class.grpc_core::StaticSlice", align 8
  store ptr %1, ptr %3, align 8, !tbaa !10
  call void @llvm.lifetime.start.p0(i64 32, ptr %4) #3
  %5 = load ptr, ptr %3, align 8, !tbaa !10
  call void @_ZN9grpc_core12slice_detail18StaticConstructorsINS_11StaticSliceEE16FromStaticStringEPKc(ptr dead_on_unwind writable sret(%"class.grpc_core::StaticSlice") align 8 %4, ptr noundef %5)
  call void @_ZN9grpc_core12slice_detail9BaseSlice10TakeCSliceEv(ptr dead_on_unwind writable sret(%struct.grpc_slice) align 8 %0, ptr noundef nonnull align 8 dereferenceable(32) %4)
  call void @llvm.lifetime.end.p0(i64 32, ptr %4) #3
  ret void
}